; Function Attrs: nounwind uwtable
define range(i32 0, 2) i32 @ossl_DER_w_RSASSA_PSS_params(ptr noundef %0, i32 noundef %1, ptr noundef %2) local_unnamed_addr #0 {
  %.not = icmp eq ptr %2, null
  br i1 %.not, label %.critedge, label %4

4:                                                ; preds = %3
  %5 = tail call i32 @ossl_rsa_pss_params_30_is_unrestricted(ptr noundef nonnull %2) #2
  %.not32 = icmp eq i32 %5, 0
  br i1 %.not32, label %6, label %.critedge, !prof !3

6:                                                ; preds = %4
  %7 = tail call i32 @ossl_rsa_pss_params_30_hashalg(ptr noundef nonnull %2) #2
  %8 = tail call i32 @ossl_rsa_pss_params_30_saltlen(ptr noundef nonnull %2) #2
  %9 = tail call i32 @ossl_rsa_pss_params_30_trailerfield(ptr noundef nonnull %2) #2
  %10 = icmp slt i32 %8, 0
  br i1 %10, label %11, label %12

11:                                               ; preds = %6
  tail call void @ERR_new() #2
  tail call void @ERR_set_debug(ptr noundef nonnull @.str, i32 noundef 309, ptr noundef nonnull @__func__.ossl_DER_w_RSASSA_PSS_params) #2
  tail call void (i32, i32, ptr, ...) @ERR_set_error(i32 noundef 4, i32 noundef 150, ptr noundef null) #2
  br label %.critedge

12:                                               ; preds = %6
  %.not33 = icmp eq i32 %9, 1
  br i1 %.not33, label %14, label %13

13:                                               ; preds = %12
  tail call void @ERR_new() #2
  tail call void @ERR_set_debug(ptr noundef nonnull @.str, i32 noundef 313, ptr noundef nonnull @__func__.ossl_DER_w_RSASSA_PSS_params) #2
  tail call void (i32, i32, ptr, ...) @ERR_set_error(i32 noundef 4, i32 noundef 139, ptr noundef null) #2
  br label %.critedge

14:                                               ; preds = %12
  %15 = tail call i32 @ossl_rsa_pss_params_30_hashalg(ptr noundef null) #2
  %16 = tail call i32 @ossl_rsa_pss_params_30_saltlen(ptr noundef null) #2
  %17 = tail call i32 @ossl_rsa_pss_params_30_trailerfield(ptr noundef null) #2
  switch i32 %7, label %.critedge [
    i32 64, label %24
    i32 675, label %18
    i32 672, label %19
    i32 673, label %20
    i32 674, label %21
    i32 1094, label %22
    i32 1095, label %23
  ]

18:                                               ; preds = %14
  br label %24

19:                                               ; preds = %14
  br label %24

20:                                               ; preds = %14
  br label %24

21:                                               ; preds = %14
  br label %24

22:                                               ; preds = %14
  br label %24

23:                                               ; preds = %14
  br label %24

24:                                               ; preds = %14, %23, %22, %21, %20, %19, %18
  %.027 = phi ptr [ @ossl_der_aid_sha512_256Identifier, %23 ], [ @ossl_der_aid_sha512_224Identifier, %22 ], [ @ossl_der_aid_sha512Identifier, %21 ], [ @ossl_der_aid_sha384Identifier, %20 ], [ @ossl_der_aid_sha256Identifier, %19 ], [ @ossl_der_aid_sha224Identifier, %18 ], [ @ossl_der_aid_sha1Identifier, %14 ]
  %.0 = phi i64 [ 15, %23 ], [ 15, %22 ], [ 15, %21 ], [ 15, %20 ], [ 15, %19 ], [ 15, %18 ], [ 11, %14 ]
  %25 = tail call i32 @ossl_DER_w_begin_sequence(ptr noundef %0, i32 noundef %1) #2
  %.not34 = icmp eq i32 %25, 0
  br i1 %.not34, label %.critedge, label %26

26:                                               ; preds = %24
  %27 = icmp eq i32 %17, 1
  br i1 %27, label %30, label %28

28:                                               ; preds = %26
  %29 = tail call i32 @ossl_DER_w_uint32(ptr noundef %0, i32 noundef 3, i32 noundef 1) #2
  %.not35 = icmp eq i32 %29, 0
  br i1 %.not35, label %.critedge, label %30

30:                                               ; preds = %28, %26
  %31 = icmp eq i32 %8, %16
  br i1 %31, label %34, label %32

32:                                               ; preds = %30
  %33 = tail call i32 @ossl_DER_w_uint32(ptr noundef %0, i32 noundef 2, i32 noundef %8) #2
  %.not36 = icmp eq i32 %33, 0
  br i1 %.not36, label %.critedge, label %34

34:                                               ; preds = %30, %32
  %35 = tail call i32 @ossl_rsa_pss_params_30_maskgenalg(ptr noundef nonnull %2) #2
  %36 = icmp eq i32 %35, 911
  br i1 %36, label %37, label %.critedge

37:                                               ; preds = %34
  %38 = tail call i32 @ossl_rsa_pss_params_30_maskgenhashalg(ptr noundef nonnull %2) #2
  switch i32 %38, label %.critedge [
    i32 64, label %DER_w_MaskGenAlgorithm.exit.thread41
    i32 675, label %DER_w_MaskGenAlgorithm.exit
    i32 672, label %39
    i32 673, label %40
    i32 674, label %41
    i32 1094, label %42
    i32 1095, label %43
  ]

39:                                               ; preds = %37
  br label %DER_w_MaskGenAlgorithm.exit

40:                                               ; preds = %37
  br label %DER_w_MaskGenAlgorithm.exit

41:                                               ; preds = %37
  br label %DER_w_MaskGenAlgorithm.exit

42:                                               ; preds = %37
  br label %DER_w_MaskGenAlgorithm.exit

43:                                               ; preds = %37
  br label %DER_w_MaskGenAlgorithm.exit

DER_w_MaskGenAlgorithm.exit:                      ; preds = %37, %39, %40, %41, %42, %43
  %.09.ph.i = phi ptr [ @der_aid_mgf1SHA256Identifier, %39 ], [ @der_aid_mgf1SHA384Identifier, %40 ], [ @der_aid_mgf1SHA512Identifier, %41 ], [ @der_aid_mgf1SHA512_224Identifier, %42 ], [ @der_aid_mgf1SHA512_256Identifier, %43 ], [ @der_aid_mgf1SHA224Identifier, %37 ]
  %44 = tail call i32 @ossl_DER_w_precompiled(ptr noundef %0, i32 noundef 1, ptr noundef nonnull %.09.ph.i, i64 noundef 28) #2
  %.not37 = icmp eq i32 %44, 0
  br i1 %.not37, label %.critedge, label %DER_w_MaskGenAlgorithm.exit.thread41

DER_w_MaskGenAlgorithm.exit.thread41:             ; preds = %37, %DER_w_MaskGenAlgorithm.exit
  %45 = icmp eq i32 %7, %15
  br i1 %45, label %48, label %46

46:                                               ; preds = %DER_w_MaskGenAlgorithm.exit.thread41
  %47 = tail call i32 @ossl_DER_w_precompiled(ptr noundef %0, i32 noundef 0, ptr noundef nonnull %.027, i64 noundef %.0) #2
  %.not38 = icmp eq i32 %47, 0
  br i1 %.not38, label %.critedge, label %48

48:                                               ; preds = %46, %DER_w_MaskGenAlgorithm.exit.thread41
  %49 = tail call i32 @ossl_DER_w_end_sequence(ptr noundef %0, i32 noundef %1) #2
  %50 = icmp ne i32 %49, 0
  %51 = zext i1 %50 to i32
  br label %.critedge

.critedge:                                        ; preds = %34, %37, %3, %24, %28, %32, %DER_w_MaskGenAlgorithm.exit, %46, %48, %14, %4, %13, %11
  %.028 = phi i32 [ 0, %11 ], [ 0, %13 ], [ 0, %4 ], [ 0, %14 ], [ 0, %46 ], [ 0, %DER_w_MaskGenAlgorithm.exit ], [ 0, %32 ], [ 0, %28 ], [ 0, %24 ], [ %51, %48 ], [ 0, %3 ], [ 0, %37 ], [ 0, %34 ]
  ret i32 %.028
}